; Function Attrs: mustprogress uwtable
define noundef zeroext i1 @_ZNK6icu_756number4impl31CurrencyPluralInfoAffixProvider19positiveHasPlusSignEv(ptr noundef nonnull align 8 dereferenceable(2185) %this) unnamed_addr #1 align 2 {
entry:
  %arrayidx = getelementptr inbounds i8, ptr %this, i64 1368
  %vtable = load ptr, ptr %arrayidx, align 8
  %vfn = getelementptr inbounds i8, ptr %vtable, i64 48
  %0 = load ptr, ptr %vfn, align 8
  %call = tail call noundef zeroext i1 %0(ptr noundef nonnull align 8 dereferenceable(267) %arrayidx)
  ret i1 %call
}